target datalayout = "e-m:e-p270:32:32-p271:32:32-p272:64:64-i64:64-i128:128-f80:128-n8:16:32:64-S128"
target triple = "x86_64-unknown-linux-gnu"

%"class.fmt::v9::detail::buffer" = type { ptr, ptr, i64, i64 }
%"class.fmt::v9::basic_memory_buffer" = type <{ %"class.fmt::v9::detail::buffer", [500 x i8], %"class.std::allocator", [3 x i8] }>
%"class.std::allocator" = type { i8 }

@stderr = external global ptr, align 8
@_ZTVN3fmt2v919basic_memory_bufferIcLm500ESaIcEEE = linkonce_odr dso_local unnamed_addr constant { [3 x ptr] } { [3 x ptr] [ptr null, ptr @_ZTIN3fmt2v919basic_memory_bufferIcLm500ESaIcEEE, ptr @_ZN3fmt2v919basic_memory_bufferIcLm500ESaIcEE4growEm] }, comdat, align 8
@_ZTVN3fmt2v96detail6bufferIcEE = linkonce_odr dso_local unnamed_addr constant { [3 x ptr] } { [3 x ptr] [ptr null, ptr @_ZTIN3fmt2v96detail6bufferIcEE, ptr @__cxa_pure_virtual] }, comdat, align 8

; Function Attrs: mustprogress nounwind uwtable
define linkonce_odr dso_local void @_ZNSt15__new_allocatorIcE10deallocateEPcm(ptr noundef nonnull align 1 dereferenceable(1) %this, ptr noundef %__p, i64 noundef %__n) #4 comdat align 2 {
entry:
  %this.addr = alloca ptr, align 8
  %__p.addr = alloca ptr, align 8
  %__n.addr = alloca i64, align 8
  store ptr %this, ptr %this.addr, align 8
  store ptr %__p, ptr %__p.addr, align 8
  store i64 %__n, ptr %__n.addr, align 8
  %0 = load ptr, ptr %__p.addr, align 8
  call void @_ZdlPv(ptr noundef %0) #19
  ret void
}

; Function Attrs: mustprogress nounwind uwtable
define linkonce_odr dso_local noundef i64 @_ZNK3fmt2v96detail6bufferIcE8capacityEv(ptr noundef nonnull align 8 dereferenceable(32) %this) #4 comdat align 2 {
entry:
  %this.addr = alloca ptr, align 8
  store ptr %this, ptr %this.addr, align 8
  %this1 = load ptr, ptr %this.addr, align 8
  %capacity_ = getelementptr inbounds %"class.fmt::v9::detail::buffer", ptr %this1, i32 0, i32 3
  %0 = load i64, ptr %capacity_, align 8
  ret i64 %0
}

; Function Attrs: mustprogress nounwind uwtable
define linkonce_odr dso_local void @_ZN3fmt2v919basic_memory_bufferIcLm500ESaIcEE10deallocateEv(ptr noundef nonnull align 8 dereferenceable(536) %this) #4 comdat align 2 {
entry:
  %this.addr = alloca ptr, align 8
  %data = alloca ptr, align 8
  store ptr %this, ptr %this.addr, align 8
  %this1 = load ptr, ptr %this.addr, align 8
  %call = call noundef ptr @_ZN3fmt2v96detail6bufferIcE4dataEv(ptr noundef nonnull align 8 dereferenceable(32) %this1) #17
  store ptr %call, ptr %data, align 8
  %0 = load ptr, ptr %data, align 8
  %store_ = getelementptr inbounds %"class.fmt::v9::basic_memory_buffer", ptr %this1, i32 0, i32 1
  %arraydecay = getelementptr inbounds [500 x i8], ptr %store_, i64 0, i64 0
  %cmp = icmp ne ptr %0, %arraydecay
  br i1 %cmp, label %if.then, label %if.end

if.then:                                          ; preds = %entry
  %alloc_ = getelementptr inbounds %"class.fmt::v9::basic_memory_buffer", ptr %this1, i32 0, i32 2
  %1 = load ptr, ptr %data, align 8
  %call2 = call noundef i64 @_ZNK3fmt2v96detail6bufferIcE8capacityEv(ptr noundef nonnull align 8 dereferenceable(32) %this1) #17
  call void @_ZNSt15__new_allocatorIcE10deallocateEPcm(ptr noundef nonnull align 1 dereferenceable(1) %alloc_, ptr noundef %1, i64 noundef %call2)
  br label %if.end

if.end:                                           ; preds = %if.then, %entry
  ret void
}

; Function Attrs: mustprogress nounwind uwtable
define linkonce_odr dso_local void @_ZN3fmt2v96detail6bufferIcE3setEPcm(ptr noundef nonnull align 8 dereferenceable(32) %this, ptr noundef %buf_data, i64 noundef %buf_capacity) #4 comdat align 2 {
entry:
  %this.addr = alloca ptr, align 8
  %buf_data.addr = alloca ptr, align 8
  %buf_capacity.addr = alloca i64, align 8
  store ptr %this, ptr %this.addr, align 8
  store ptr %buf_data, ptr %buf_data.addr, align 8
  store i64 %buf_capacity, ptr %buf_capacity.addr, align 8
  %this1 = load ptr, ptr %this.addr, align 8
  %0 = load ptr, ptr %buf_data.addr, align 8
  %ptr_ = getelementptr inbounds %"class.fmt::v9::detail::buffer", ptr %this1, i32 0, i32 1
  store ptr %0, ptr %ptr_, align 8
  %1 = load i64, ptr %buf_capacity.addr, align 8
  %capacity_ = getelementptr inbounds %"class.fmt::v9::detail::buffer", ptr %this1, i32 0, i32 3
  store i64 %1, ptr %capacity_, align 8
  ret void
}

; Function Attrs: mustprogress nounwind uwtable
define linkonce_odr dso_local void @_ZN3fmt2v96detail6bufferIcEC2EPcmm(ptr noundef nonnull align 8 dereferenceable(32) %this, ptr noundef %p, i64 noundef %sz, i64 noundef %cap) unnamed_addr #4 comdat align 2 {
entry:
  %this.addr = alloca ptr, align 8
  %p.addr = alloca ptr, align 8
  %sz.addr = alloca i64, align 8
  %cap.addr = alloca i64, align 8
  store ptr %this, ptr %this.addr, align 8
  store ptr %p, ptr %p.addr, align 8
  store i64 %sz, ptr %sz.addr, align 8
  store i64 %cap, ptr %cap.addr, align 8
  %this1 = load ptr, ptr %this.addr, align 8
  store ptr getelementptr inbounds ({ [3 x ptr] }, ptr @_ZTVN3fmt2v96detail6bufferIcEE, i32 0, i32 0, i32 2), ptr %this1, align 8
  %ptr_ = getelementptr inbounds %"class.fmt::v9::detail::buffer", ptr %this1, i32 0, i32 1
  %0 = load ptr, ptr %p.addr, align 8
  store ptr %0, ptr %ptr_, align 8
  %size_ = getelementptr inbounds %"class.fmt::v9::detail::buffer", ptr %this1, i32 0, i32 2
  %1 = load i64, ptr %sz.addr, align 8
  store i64 %1, ptr %size_, align 8
  %capacity_ = getelementptr inbounds %"class.fmt::v9::detail::buffer", ptr %this1, i32 0, i32 3
  %2 = load i64, ptr %cap.addr, align 8
  store i64 %2, ptr %capacity_, align 8
  ret void
}

; Function Attrs: mustprogress nounwind uwtable
define linkonce_odr dso_local void @_ZN3fmt2v919basic_memory_bufferIcLm500ESaIcEED2Ev(ptr noundef nonnull align 8 dereferenceable(536) %this) unnamed_addr #4 comdat align 2 personality ptr @__gxx_personality_v0 {
entry:
  %this.addr = alloca ptr, align 8
  store ptr %this, ptr %this.addr, align 8
  %this1 = load ptr, ptr %this.addr, align 8
  invoke void @_ZN3fmt2v919basic_memory_bufferIcLm500ESaIcEE10deallocateEv(ptr noundef nonnull align 8 dereferenceable(536) %this1)
          to label %invoke.cont unwind label %terminate.lpad

invoke.cont:                                      ; preds = %entry
  %alloc_ = getelementptr inbounds %"class.fmt::v9::basic_memory_buffer", ptr %this1, i32 0, i32 2
  call void @_ZNSaIcED1Ev(ptr noundef nonnull align 1 dereferenceable(1) %alloc_) #17
  ret void

terminate.lpad:                                   ; preds = %entry
  %0 = landingpad { ptr, i32 }
          catch ptr null
  %1 = extractvalue { ptr, i32 } %0, 0
  call void @__clang_call_terminate(ptr %1) #16
  unreachable
}

; Function Attrs: mustprogress nounwind uwtable
define linkonce_odr dso_local noundef i64 @_ZNK3fmt2v96detail6bufferIcE4sizeEv(ptr noundef nonnull align 8 dereferenceable(32) %this) #4 comdat align 2 {
entry:
  %this.addr = alloca ptr, align 8
  store ptr %this, ptr %this.addr, align 8
  %this1 = load ptr, ptr %this.addr, align 8
  %size_ = getelementptr inbounds %"class.fmt::v9::detail::buffer", ptr %this1, i32 0, i32 2
  %0 = load i64, ptr %size_, align 8
  ret i64 %0
}

; Function Attrs: mustprogress nounwind uwtable
define linkonce_odr dso_local noundef ptr @_ZN3fmt2v96detail6bufferIcE4dataEv(ptr noundef nonnull align 8 dereferenceable(32) %this) #4 comdat align 2 {
entry:
  %this.addr = alloca ptr, align 8
  store ptr %this, ptr %this.addr, align 8
  %this1 = load ptr, ptr %this.addr, align 8
  %ptr_ = getelementptr inbounds %"class.fmt::v9::detail::buffer", ptr %this1, i32 0, i32 1
  %0 = load ptr, ptr %ptr_, align 8
  ret ptr %0
}

; Function Attrs: mustprogress nounwind uwtable
define linkonce_odr dso_local void @_ZN3fmt2v919basic_memory_bufferIcLm500ESaIcEEC2ERKS2_(ptr noundef nonnull align 8 dereferenceable(536) %this, ptr noundef nonnull align 1 dereferenceable(1) %alloc) unnamed_addr #4 comdat align 2 {
entry:
  %this.addr = alloca ptr, align 8
  %alloc.addr = alloca ptr, align 8
  store ptr %this, ptr %this.addr, align 8
  store ptr %alloc, ptr %alloc.addr, align 8
  %this1 = load ptr, ptr %this.addr, align 8
  call void @_ZN3fmt2v96detail6bufferIcEC2EPcmm(ptr noundef nonnull align 8 dereferenceable(32) %this1, ptr noundef null, i64 noundef 0, i64 noundef 0) #17
  store ptr getelementptr inbounds ({ [3 x ptr] }, ptr @_ZTVN3fmt2v919basic_memory_bufferIcLm500ESaIcEEE, i32 0, i32 0, i32 2), ptr %this1, align 8
  %alloc_ = getelementptr inbounds %"class.fmt::v9::basic_memory_buffer", ptr %this1, i32 0, i32 2
  %0 = load ptr, ptr %alloc.addr, align 8
  call void @_ZNSaIcEC1ERKS_(ptr noundef nonnull align 1 dereferenceable(1) %alloc_, ptr noundef nonnull align 1 dereferenceable(1) %0) #17
  %store_ = getelementptr inbounds %"class.fmt::v9::basic_memory_buffer", ptr %this1, i32 0, i32 1
  %arraydecay = getelementptr inbounds [500 x i8], ptr %store_, i64 0, i64 0
  call void @_ZN3fmt2v96detail6bufferIcE3setEPcm(ptr noundef nonnull align 8 dereferenceable(32) %this1, ptr noundef %arraydecay, i64 noundef 500) #17
  ret void
}

; Function Attrs: mustprogress nounwind uwtable
define dso_local void @_ZN3fmt2v96detail12report_errorEPFvRNS1_6bufferIcEEiPKcEiS6_(ptr noundef %func, i32 noundef %error_code, ptr noundef %message) #4 personality ptr @__gxx_personality_v0 {
entry:
  %func.addr = alloca ptr, align 8
  %error_code.addr = alloca i32, align 4
  %message.addr = alloca ptr, align 8
  %full_message = alloca %"class.fmt::v9::basic_memory_buffer", align 8
  %ref.tmp = alloca %"class.std::allocator", align 1
  store ptr %func, ptr %func.addr, align 8
  store i32 %error_code, ptr %error_code.addr, align 4
  store ptr %message, ptr %message.addr, align 8
  call void @_ZNSaIcEC1Ev(ptr noundef nonnull align 1 dereferenceable(1) %ref.tmp) #17
  invoke void @_ZN3fmt2v919basic_memory_bufferIcLm500ESaIcEEC2ERKS2_(ptr noundef nonnull align 8 dereferenceable(536) %full_message, ptr noundef nonnull align 1 dereferenceable(1) %ref.tmp)
          to label %invoke.cont unwind label %terminate.lpad

invoke.cont:                                      ; preds = %entry
  call void @_ZNSaIcED1Ev(ptr noundef nonnull align 1 dereferenceable(1) %ref.tmp) #17
  %0 = load ptr, ptr %func.addr, align 8
  %1 = load i32, ptr %error_code.addr, align 4
  %2 = load ptr, ptr %message.addr, align 8
  invoke void %0(ptr noundef nonnull align 8 dereferenceable(32) %full_message, i32 noundef %1, ptr noundef %2)
          to label %invoke.cont1 unwind label %terminate.lpad

invoke.cont1:                                     ; preds = %invoke.cont
  %call = call noundef ptr @_ZN3fmt2v96detail6bufferIcE4dataEv(ptr noundef nonnull align 8 dereferenceable(32) %full_message) #17
  %call2 = call noundef i64 @_ZNK3fmt2v96detail6bufferIcE4sizeEv(ptr noundef nonnull align 8 dereferenceable(32) %full_message) #17
  %3 = load ptr, ptr @stderr, align 8
  %call4 = invoke i64 @fwrite(ptr noundef %call, i64 noundef %call2, i64 noundef 1, ptr noundef %3)
          to label %invoke.cont3 unwind label %terminate.lpad

invoke.cont3:                                     ; preds = %invoke.cont1
  %cmp = icmp ugt i64 %call4, 0
  br i1 %cmp, label %if.then, label %if.end

if.then:                                          ; preds = %invoke.cont3
  %4 = load ptr, ptr @stderr, align 8
  %call6 = invoke i32 @fputc(i32 noundef 10, ptr noundef %4)
          to label %invoke.cont5 unwind label %terminate.lpad

invoke.cont5:                                     ; preds = %if.then
  br label %if.end

if.end:                                           ; preds = %invoke.cont5, %invoke.cont3
  call void @_ZN3fmt2v919basic_memory_bufferIcLm500ESaIcEED2Ev(ptr noundef nonnull align 8 dereferenceable(536) %full_message) #17
  ret void

terminate.lpad:                                   ; preds = %if.then, %invoke.cont1, %invoke.cont, %entry
  %5 = landingpad { ptr, i32 }
          catch ptr null
  %6 = extractvalue { ptr, i32 } %5, 0
  call void @__clang_call_terminate(ptr %6) #16
  unreachable
}