; Function Attrs: mustprogress nounwind uwtable
define dso_local void @_ZN3fmt2v96detail12report_errorEPFvRNS1_6bufferIcEEiPKcEiS6_(ptr nocapture noundef readonly %func, i32 noundef %error_code, ptr noundef %message) local_unnamed_addr #5 personality ptr @__gxx_personality_v0 {
entry:
  %full_message = alloca %"class.fmt::v9::basic_memory_buffer", align 8
  %ref.tmp = alloca %"class.std::allocator", align 1
  call void @_ZNSaIcEC1Ev(ptr noundef nonnull align 1 dereferenceable(1) %ref.tmp) #25
  %ptr_.i.i = getelementptr inbounds i8, ptr %full_message, i64 8
  %capacity_.i.i = getelementptr inbounds i8, ptr %full_message, i64 24
  call void @llvm.memset.p0.i64(ptr noundef nonnull align 8 dereferenceable(24) %ptr_.i.i, i8 0, i64 24, i1 false)
  store ptr getelementptr inbounds ({ [3 x ptr] }, ptr @_ZTVN3fmt2v919basic_memory_bufferIcLm500ESaIcEEE, i64 0, i32 0, i64 2), ptr %full_message, align 8
  %alloc_.i = getelementptr inbounds i8, ptr %full_message, i64 532
  call void @_ZNSaIcEC1ERKS_(ptr noundef nonnull align 1 dereferenceable(1) %alloc_.i, ptr noundef nonnull align 1 dereferenceable(1) %ref.tmp) #25
  %store_.i = getelementptr inbounds i8, ptr %full_message, i64 32
  store ptr %store_.i, ptr %ptr_.i.i, align 8
  store i64 500, ptr %capacity_.i.i, align 8
  call void @_ZNSaIcED1Ev(ptr noundef nonnull align 1 dereferenceable(1) %ref.tmp) #25
  invoke void %func(ptr noundef nonnull align 8 dereferenceable(32) %full_message, i32 noundef %error_code, ptr noundef %message)
          to label %invoke.cont1 unwind label %terminate.lpad

invoke.cont1:                                     ; preds = %entry
  %0 = load ptr, ptr %ptr_.i.i, align 8
  %size_.i = getelementptr inbounds i8, ptr %full_message, i64 16
  %1 = load i64, ptr %size_.i, align 8
  %2 = load ptr, ptr @stderr, align 8
  %call4 = call i64 @fwrite(ptr noundef %0, i64 noundef %1, i64 noundef 1, ptr noundef %2) #23
  %cmp.not = icmp eq i64 %call4, 0
  br i1 %cmp.not, label %if.end, label %if.then

if.then:                                          ; preds = %invoke.cont1
  %3 = load ptr, ptr @stderr, align 8
  %call6 = call i32 @fputc(i32 noundef 10, ptr noundef %3)
  br label %if.end

if.end:                                           ; preds = %if.then, %invoke.cont1
  %4 = load ptr, ptr %ptr_.i.i, align 8
  %cmp.not.i.i = icmp eq ptr %4, %store_.i
  br i1 %cmp.not.i.i, label %_ZN3fmt2v919basic_memory_bufferIcLm500ESaIcEED2Ev.exit, label %if.then.i.i

if.then.i.i:                                      ; preds = %if.end
  call void @_ZdlPv(ptr noundef %4) #27
  br label %_ZN3fmt2v919basic_memory_bufferIcLm500ESaIcEED2Ev.exit

_ZN3fmt2v919basic_memory_bufferIcLm500ESaIcEED2Ev.exit: ; preds = %if.end, %if.then.i.i
  call void @_ZNSaIcED1Ev(ptr noundef nonnull align 1 dereferenceable(1) %alloc_.i) #25
  ret void

terminate.lpad:                                   ; preds = %entry
  %5 = landingpad { ptr, i32 }
          catch ptr null
  %6 = extractvalue { ptr, i32 } %5, 0
  call void @__clang_call_terminate(ptr %6) #24
  unreachable
}